target datalayout = "e-m:e-p270:32:32-p271:32:32-p272:64:64-i64:64-i128:128-f80:128-n8:16:32:64-S128"
target triple = "x86_64-pc-linux-gnu"

%union.pthread_mutex_t = type { %struct.__pthread_mutex_s }
%struct.__pthread_mutex_s = type { i32, i32, i32, i32, i32, i16, i16, %struct.__pthread_internal_list }
%struct.__pthread_internal_list = type { ptr, ptr }
%struct.___itt_global = type { [8 x i8], i64, i64, i64, i64, i64, i64, %union.pthread_mutex_t, ptr, ptr, ptr, ptr, ptr, ptr, ptr, ptr, i32, ptr, i32, ptr, ptr }

@__itt_clock_domain_create_ptr__3_0 = hidden global ptr @__itt_clock_domain_create_init_3_0, align 8
@__itt_init_ittlib_ptr = internal global ptr @__itt_init_ittlib, align 8

; Function Attrs: nounwind uwtable
define internal ptr @__itt_clock_domain_create_init_3_0(ptr noundef %0, ptr noundef %1) #0 {
  %3 = alloca ptr, align 8
  %4 = alloca ptr, align 8
  %5 = alloca ptr, align 8
  store ptr %0, ptr %4, align 8, !tbaa !21
  store ptr %1, ptr %5, align 8, !tbaa !21
  %6 = load volatile i64, ptr getelementptr inbounds nuw (%struct.___itt_global, ptr @__itt__ittapi_global, i32 0, i32 4), align 8, !tbaa !3
  %7 = icmp ne i64 %6, 0
  br i1 %7, label %14, label %8

8:                                                ; preds = %2
  %9 = load ptr, ptr getelementptr inbounds nuw (%struct.___itt_global, ptr @__itt__ittapi_global, i32 0, i32 13), align 8, !tbaa !20
  %10 = icmp eq ptr %9, null
  br i1 %10, label %11, label %14

11:                                               ; preds = %8
  %12 = load ptr, ptr @__itt_init_ittlib_ptr, align 8, !tbaa !21
  %13 = call i32 %12(ptr noundef null, i32 noundef -1)
  br label %14

14:                                               ; preds = %11, %8, %2
  %15 = load ptr, ptr @__itt_clock_domain_create_ptr__3_0, align 8, !tbaa !21
  %16 = icmp ne ptr %15, null
  br i1 %16, label %17, label %25

17:                                               ; preds = %14
  %18 = load ptr, ptr @__itt_clock_domain_create_ptr__3_0, align 8, !tbaa !21
  %19 = icmp ne ptr %18, @__itt_clock_domain_create_init_3_0
  br i1 %19, label %20, label %25

20:                                               ; preds = %17
  %21 = load ptr, ptr @__itt_clock_domain_create_ptr__3_0, align 8, !tbaa !21
  %22 = load ptr, ptr %4, align 8, !tbaa !21
  %23 = load ptr, ptr %5, align 8, !tbaa !21
  %24 = call ptr %21(ptr noundef %22, ptr noundef %23)
  store ptr %24, ptr %3, align 8
  br label %26

25:                                               ; preds = %17, %14
  store ptr null, ptr %3, align 8
  br label %26

26:                                               ; preds = %25, %20
  %27 = load ptr, ptr %3, align 8
  ret ptr %27
}